; Function Attrs: mustprogress uwtable
define hidden noundef zeroext i1 @_ZN11OpenImageIO6v3_1_09TIFFInput4openERKNSt7__cxx1112basic_stringIcSt11char_traitsIcESaIcEEERNS0_9ImageSpecE(ptr noundef nonnull align 8 dereferenceable(384) %0, ptr noundef nonnull align 8 dereferenceable(32) %1, ptr noundef nonnull align 8 dereferenceable(160) initializes((0, 72)) %2) unnamed_addr #5 align 2 {
  %4 = getelementptr inbounds nuw i8, ptr %0, i64 192
  tail call void @_ZNSt7__cxx1112basic_stringIcSt11char_traitsIcESaIcEE9_M_assignERKS4_(ptr noundef nonnull align 8 dereferenceable(32) %4, ptr noundef nonnull align 8 dereferenceable(32) %1)
  %5 = getelementptr inbounds nuw i8, ptr %0, i64 272
  store i32 -1, ptr %5, align 8, !tbaa !78
  %6 = tail call noundef zeroext i1 @_ZN11OpenImageIO6v3_1_09TIFFInput13seek_subimageEii(ptr noundef nonnull align 8 dereferenceable(384) %0, i32 noundef 0, i32 noundef 0)
  %7 = getelementptr inbounds nuw i8, ptr %0, i64 8
  tail call void @llvm.memcpy.p0.p0.i64(ptr noundef nonnull align 8 dereferenceable(160) %2, ptr noundef nonnull align 8 dereferenceable(160) %7, i64 72, i1 false)
  %8 = getelementptr inbounds nuw i8, ptr %2, i64 72
  %9 = getelementptr inbounds nuw i8, ptr %0, i64 80
  %10 = tail call noundef nonnull align 8 dereferenceable(24) ptr @_ZNSt6vectorIN11OpenImageIO6v3_1_08TypeDescESaIS2_EEaSERKS4_(ptr noundef nonnull align 8 dereferenceable(24) %8, ptr noundef nonnull align 8 dereferenceable(24) %9)
  %11 = getelementptr inbounds nuw i8, ptr %2, i64 96
  %12 = getelementptr inbounds nuw i8, ptr %0, i64 104
  %13 = tail call noundef nonnull align 8 dereferenceable(24) ptr @_ZNSt6vectorINSt7__cxx1112basic_stringIcSt11char_traitsIcESaIcEEESaIS5_EEaSERKS7_(ptr noundef nonnull align 8 dereferenceable(24) %11, ptr noundef nonnull align 8 dereferenceable(24) %12)
  %14 = getelementptr inbounds nuw i8, ptr %2, i64 120
  %15 = getelementptr inbounds nuw i8, ptr %0, i64 128
  tail call void @llvm.memcpy.p0.p0.i64(ptr noundef nonnull align 8 dereferenceable(9) %14, ptr noundef nonnull align 8 dereferenceable(9) %15, i64 9, i1 false)
  %16 = getelementptr inbounds nuw i8, ptr %2, i64 136
  %17 = getelementptr inbounds nuw i8, ptr %0, i64 144
  %18 = tail call noundef nonnull align 8 dereferenceable(24) ptr @_ZNSt6vectorIN11OpenImageIO6v3_1_010ParamValueESaIS2_EEaSERKS4_(ptr noundef nonnull align 8 dereferenceable(24) %16, ptr noundef nonnull align 8 dereferenceable(24) %17)
  ret i1 %6
}